; Function Attrs: nounwind uwtable
define noalias nonnull ptr @l_Lean_Omega_Constraint_combine(ptr noundef %0, ptr noundef %1) local_unnamed_addr #1 {
  %3 = getelementptr inbounds nuw i8, ptr %0, i64 8
  %4 = load ptr, ptr %3, align 8, !tbaa !11
  %5 = ptrtoint ptr %4 to i64
  %6 = and i64 %5, 1
  %.not = icmp eq i64 %6, 0
  br i1 %.not, label %7, label %lean_inc.exit24

7:                                                ; preds = %2
  %.val.i = load i32, ptr %4, align 4, !tbaa !6
  %8 = icmp sgt i32 %.val.i, 0
  br i1 %8, label %9, label %11, !prof !5

9:                                                ; preds = %7
  %10 = add nuw i32 %.val.i, 1
  store i32 %10, ptr %4, align 4, !tbaa !6
  br label %lean_inc.exit24

11:                                               ; preds = %7
  %.not.i27 = icmp eq i32 %.val.i, 0
  br i1 %.not.i27, label %lean_inc.exit24, label %12

12:                                               ; preds = %11
  tail call void @lean_inc_ref_cold(ptr noundef nonnull %4) #4
  br label %lean_inc.exit24

lean_inc.exit24:                                  ; preds = %12, %11, %9, %2
  %13 = getelementptr inbounds nuw i8, ptr %1, i64 8
  %14 = load ptr, ptr %13, align 8, !tbaa !11
  %15 = ptrtoint ptr %14 to i64
  %16 = and i64 %15, 1
  %.not37 = icmp eq i64 %16, 0
  br i1 %.not37, label %17, label %lean_inc.exit23

17:                                               ; preds = %lean_inc.exit24
  %.val.i28 = load i32, ptr %14, align 4, !tbaa !6
  %18 = icmp sgt i32 %.val.i28, 0
  br i1 %18, label %19, label %21, !prof !5

19:                                               ; preds = %17
  %20 = add nuw i32 %.val.i28, 1
  store i32 %20, ptr %14, align 4, !tbaa !6
  br label %lean_inc.exit23

21:                                               ; preds = %17
  %.not.i29 = icmp eq i32 %.val.i28, 0
  br i1 %.not.i29, label %lean_inc.exit23, label %22

22:                                               ; preds = %21
  tail call void @lean_inc_ref_cold(ptr noundef nonnull %14) #4
  br label %lean_inc.exit23

lean_inc.exit23:                                  ; preds = %22, %21, %19, %lean_inc.exit24
  %23 = load ptr, ptr @l_Lean_Omega_Constraint_combine___closed__1, align 8, !tbaa !11
  %24 = tail call ptr @l_Option_merge___rarg(ptr noundef %23, ptr noundef %4, ptr noundef %14) #4
  %25 = getelementptr inbounds nuw i8, ptr %0, i64 16
  %26 = load ptr, ptr %25, align 8, !tbaa !11
  %27 = ptrtoint ptr %26 to i64
  %28 = and i64 %27, 1
  %.not38 = icmp eq i64 %28, 0
  br i1 %.not38, label %29, label %lean_inc.exit22

29:                                               ; preds = %lean_inc.exit23
  %.val.i31 = load i32, ptr %26, align 4, !tbaa !6
  %30 = icmp sgt i32 %.val.i31, 0
  br i1 %30, label %31, label %33, !prof !5

31:                                               ; preds = %29
  %32 = add nuw i32 %.val.i31, 1
  store i32 %32, ptr %26, align 4, !tbaa !6
  br label %lean_inc.exit22

33:                                               ; preds = %29
  %.not.i32 = icmp eq i32 %.val.i31, 0
  br i1 %.not.i32, label %lean_inc.exit22, label %34

34:                                               ; preds = %33
  tail call void @lean_inc_ref_cold(ptr noundef nonnull %26) #4
  br label %lean_inc.exit22

lean_inc.exit22:                                  ; preds = %34, %33, %31, %lean_inc.exit23
  %35 = ptrtoint ptr %0 to i64
  %36 = and i64 %35, 1
  %.not39 = icmp eq i64 %36, 0
  br i1 %.not39, label %37, label %lean_dec.exit21

37:                                               ; preds = %lean_inc.exit22
  %38 = load i32, ptr %0, align 4, !tbaa !6
  %39 = icmp sgt i32 %38, 1
  br i1 %39, label %40, label %42, !prof !5

40:                                               ; preds = %37
  %41 = add nsw i32 %38, -1
  store i32 %41, ptr %0, align 4, !tbaa !6
  br label %lean_dec.exit21

42:                                               ; preds = %37
  %.not.i = icmp eq i32 %38, 0
  br i1 %.not.i, label %lean_dec.exit21, label %43

43:                                               ; preds = %42
  tail call void @lean_dec_ref_cold(ptr noundef nonnull %0) #4
  br label %lean_dec.exit21

lean_dec.exit21:                                  ; preds = %43, %42, %40, %lean_inc.exit22
  %44 = getelementptr inbounds nuw i8, ptr %1, i64 16
  %45 = load ptr, ptr %44, align 8, !tbaa !11
  %46 = ptrtoint ptr %45 to i64
  %47 = and i64 %46, 1
  %.not40 = icmp eq i64 %47, 0
  br i1 %.not40, label %48, label %lean_inc.exit

48:                                               ; preds = %lean_dec.exit21
  %.val.i34 = load i32, ptr %45, align 4, !tbaa !6
  %49 = icmp sgt i32 %.val.i34, 0
  br i1 %49, label %50, label %52, !prof !5

50:                                               ; preds = %48
  %51 = add nuw i32 %.val.i34, 1
  store i32 %51, ptr %45, align 4, !tbaa !6
  br label %lean_inc.exit

52:                                               ; preds = %48
  %.not.i35 = icmp eq i32 %.val.i34, 0
  br i1 %.not.i35, label %lean_inc.exit, label %53

53:                                               ; preds = %52
  tail call void @lean_inc_ref_cold(ptr noundef nonnull %45) #4
  br label %lean_inc.exit

lean_inc.exit:                                    ; preds = %53, %52, %50, %lean_dec.exit21
  %54 = ptrtoint ptr %1 to i64
  %55 = and i64 %54, 1
  %.not41 = icmp eq i64 %55, 0
  br i1 %.not41, label %56, label %lean_dec.exit

56:                                               ; preds = %lean_inc.exit
  %57 = load i32, ptr %1, align 4, !tbaa !6
  %58 = icmp sgt i32 %57, 1
  br i1 %58, label %59, label %61, !prof !5

59:                                               ; preds = %56
  %60 = add nsw i32 %57, -1
  store i32 %60, ptr %1, align 4, !tbaa !6
  br label %lean_dec.exit

61:                                               ; preds = %56
  %.not.i25 = icmp eq i32 %57, 0
  br i1 %.not.i25, label %lean_dec.exit, label %62

62:                                               ; preds = %61
  tail call void @lean_dec_ref_cold(ptr noundef nonnull %1) #4
  br label %lean_dec.exit

lean_dec.exit:                                    ; preds = %62, %61, %59, %lean_inc.exit
  %63 = load ptr, ptr @l_Lean_Omega_Constraint_combine___closed__2, align 8, !tbaa !11
  %64 = tail call ptr @l_Option_merge___rarg(ptr noundef %63, ptr noundef %26, ptr noundef %45) #4
  tail call void @lean_inc_heartbeat() #4
  %65 = tail call noalias ptr @mi_malloc_small(i64 noundef 24) #4
  %66 = icmp eq ptr %65, null
  br i1 %66, label %67, label %lean_alloc_ctor.exit

67:                                               ; preds = %lean_dec.exit
  tail call void @lean_internal_panic_out_of_memory() #5
  unreachable

lean_alloc_ctor.exit:                             ; preds = %lean_dec.exit
  %68 = getelementptr inbounds nuw i8, ptr %65, i64 4
  store i32 1, ptr %65, align 4, !tbaa !6
  store i32 131096, ptr %68, align 4
  %69 = getelementptr inbounds nuw i8, ptr %65, i64 8
  store ptr %24, ptr %69, align 8, !tbaa !11
  %70 = getelementptr inbounds nuw i8, ptr %65, i64 16
  store ptr %64, ptr %70, align 8, !tbaa !11
  ret ptr %65
}